target datalayout = "e-m:e-p270:32:32-p271:32:32-p272:64:64-i64:64-i128:128-f80:128-n8:16:32:64-S128"
target triple = "x86_64-pc-linux-gnu"

%struct.__va_list_tag = type { i32, i32, ptr, ptr }

@stderr = external global ptr, align 8
@_ZN3tbb6detail2r1L16PrintVersionFlagE = internal global i8 0, align 1
@.str.1 = private unnamed_addr constant [15 x i8] c"oneTBB: %s\09%s\0A\00", align 1

; Function Attrs: alwaysinline mustprogress nounwind
define internal i32 @vsnprintf.inline(ptr noalias %0, i64 %1, ptr noalias %2, ptr %3) #3 personality ptr @__gxx_personality_v0 {
  %5 = alloca ptr, align 8
  %6 = alloca i64, align 8
  %7 = alloca ptr, align 8
  %8 = alloca ptr, align 8
  store ptr %0, ptr %5, align 8, !tbaa !3
  store i64 %1, ptr %6, align 8, !tbaa !24
  store ptr %2, ptr %7, align 8, !tbaa !3
  store ptr %3, ptr %8, align 8, !tbaa !26
  %9 = load ptr, ptr %5, align 8, !tbaa !3
  %10 = load i64, ptr %6, align 8, !tbaa !24
  %11 = load ptr, ptr %5, align 8, !tbaa !3
  %12 = call i64 @llvm.objectsize.i64.p0(ptr %11, i1 false, i1 true, i1 false)
  %13 = load ptr, ptr %7, align 8, !tbaa !3
  %14 = load ptr, ptr %8, align 8, !tbaa !26
  %15 = invoke i32 @__vsnprintf_chk(ptr noundef %9, i64 noundef %10, i32 noundef 1, i64 noundef %12, ptr noundef %13, ptr noundef %14)
          to label %16 unwind label %17

16:                                               ; preds = %4
  ret i32 %15

17:                                               ; preds = %4
  %18 = landingpad { ptr, i32 }
          catch ptr null
  %19 = extractvalue { ptr, i32 } %18, 0
  call void @__clang_call_terminate(ptr %19) #14
  unreachable
}

; Function Attrs: alwaysinline mustprogress nounwind
define internal ptr @memset.inline(ptr nonnull %0, i32 %1, i64 %2) #3 {
  %4 = alloca ptr, align 8
  %5 = alloca i32, align 4
  %6 = alloca i64, align 8
  store ptr %0, ptr %4, align 8, !tbaa !15
  store i32 %1, ptr %5, align 4, !tbaa !8
  store i64 %2, ptr %6, align 8, !tbaa !24
  %7 = load ptr, ptr %4, align 8, !tbaa !15
  %8 = load i32, ptr %5, align 4, !tbaa !8
  %9 = load i64, ptr %6, align 8, !tbaa !24
  %10 = load ptr, ptr %4, align 8, !tbaa !15
  %11 = call i64 @llvm.objectsize.i64.p0(ptr %10, i1 false, i1 true, i1 false)
  %12 = call ptr @__memset_chk(ptr noundef %7, i32 noundef %8, i64 noundef %9, i64 noundef %11) #13
  ret ptr %12
}

; Function Attrs: mustprogress nounwind sspstrong uwtable
define void @_ZN3tbb6detail2r121PrintExtraVersionInfoEPKcS3_z(ptr noundef %0, ptr noundef %1, ...) #2 {
  %3 = alloca ptr, align 8
  %4 = alloca ptr, align 8
  %5 = alloca [1024 x i8], align 16
  %6 = alloca [1 x %struct.__va_list_tag], align 16
  store ptr %0, ptr %3, align 8, !tbaa !3
  store ptr %1, ptr %4, align 8, !tbaa !3
  %7 = load i8, ptr @_ZN3tbb6detail2r1L16PrintVersionFlagE, align 1, !tbaa !28, !range !30, !noundef !31
  %8 = trunc i8 %7 to i1
  br i1 %8, label %9, label %22

9:                                                ; preds = %2
  call void @llvm.lifetime.start.p0(i64 1024, ptr %5) #13
  %10 = getelementptr inbounds [1024 x i8], ptr %5, i64 0, i64 0
  %11 = call ptr @memset.inline(ptr noundef %10, i32 noundef 0, i64 noundef 1024) #13
  call void @llvm.lifetime.start.p0(i64 24, ptr %6) #13
  %12 = getelementptr inbounds [1 x %struct.__va_list_tag], ptr %6, i64 0, i64 0
  call void @llvm.va_start.p0(ptr %12)
  %13 = getelementptr inbounds [1024 x i8], ptr %5, i64 0, i64 0
  %14 = load ptr, ptr %4, align 8, !tbaa !3
  %15 = getelementptr inbounds [1 x %struct.__va_list_tag], ptr %6, i64 0, i64 0
  %16 = call i32 @vsnprintf.inline(ptr noundef %13, i64 noundef 1023, ptr noundef %14, ptr noundef %15) #13
  %17 = getelementptr inbounds [1 x %struct.__va_list_tag], ptr %6, i64 0, i64 0
  call void @llvm.va_end.p0(ptr %17)
  %18 = load ptr, ptr @stderr, align 8, !tbaa !22
  %19 = load ptr, ptr %3, align 8, !tbaa !3
  %20 = getelementptr inbounds [1024 x i8], ptr %5, i64 0, i64 0
  %21 = call i32 (ptr, ptr, ...) @fprintf(ptr noundef %18, ptr noundef @.str.1, ptr noundef %19, ptr noundef %20) #13
  call void @llvm.lifetime.end.p0(i64 24, ptr %6) #13
  call void @llvm.lifetime.end.p0(i64 1024, ptr %5) #13
  br label %22

22:                                               ; preds = %9, %2
  ret void
}