; Function Attrs: mustprogress nounwind sspstrong uwtable
define void @_ZN3tbb6detail2r121PrintExtraVersionInfoEPKcS3_z(ptr noundef %0, ptr noundef %1, ...) local_unnamed_addr #0 personality ptr @__gxx_personality_v0 {
  %3 = alloca [1024 x i8], align 16
  %4 = alloca [1 x %struct.__va_list_tag], align 16
  %.b2 = load i1, ptr @_ZN3tbb6detail2r1L16PrintVersionFlagE, align 1
  br i1 %.b2, label %5, label %12

5:                                                ; preds = %2
  call void @llvm.lifetime.start.p0(i64 1024, ptr nonnull %3) #15
  call void @llvm.memset.p0.i64(ptr noundef nonnull align 16 dereferenceable(1024) %3, i8 noundef 0, i64 noundef 1024, i1 noundef false) #15
  call void @llvm.lifetime.start.p0(i64 24, ptr nonnull %4) #15
  call void @llvm.va_start.p0(ptr nonnull %4)
  %6 = invoke i32 @__vsnprintf_chk(ptr noundef nonnull %3, i64 noundef 1023, i32 noundef 1, i64 noundef 1024, ptr noundef %1, ptr noundef nonnull %4)
          to label %vsnprintf.inline.exit unwind label %7

7:                                                ; preds = %5
  %8 = landingpad { ptr, i32 }
          catch ptr null
  %9 = extractvalue { ptr, i32 } %8, 0
  call void @__clang_call_terminate(ptr %9) #17
  unreachable

vsnprintf.inline.exit:                            ; preds = %5
  call void @llvm.va_end.p0(ptr nonnull %4)
  %10 = load ptr, ptr @stderr, align 8, !tbaa !19
  %11 = call i32 (ptr, ptr, ...) @fprintf(ptr noundef %10, ptr noundef nonnull @.str.1, ptr noundef %0, ptr noundef nonnull %3) #18
  call void @llvm.lifetime.end.p0(i64 24, ptr nonnull %4) #15
  call void @llvm.lifetime.end.p0(i64 1024, ptr nonnull %3) #15
  br label %12

12:                                               ; preds = %vsnprintf.inline.exit, %2
  ret void
}